target datalayout = "e-m:e-p270:32:32-p271:32:32-p272:64:64-i64:64-i128:128-f80:128-n8:16:32:64-S128"
target triple = "x86_64-pc-linux-gnu"

%"class.std::__1::unique_ptr" = type { %"class.std::__1::__compressed_pair" }
%"class.std::__1::__compressed_pair" = type { %"struct.std::__1::__compressed_pair_elem" }
%"struct.std::__1::__compressed_pair_elem" = type { ptr }
%"class.mitsuba::Bitmap" = type { %"class.mitsuba::Object.base", %"class.std::__1::unique_ptr", i32, i32, %"struct.mitsuba::Vector", %"class.mitsuba::ref", i8, i8, i8, %"class.mitsuba::Properties" }
%"class.mitsuba::Object.base" = type <{ ptr, %"struct.std::__1::atomic" }>
%"struct.std::__1::atomic" = type { %"struct.std::__1::__atomic_base" }
%"struct.std::__1::__atomic_base" = type { %"struct.std::__1::__atomic_base.0" }
%"struct.std::__1::__atomic_base.0" = type { %"struct.std::__1::__cxx_atomic_impl" }
%"struct.std::__1::__cxx_atomic_impl" = type { %"struct.std::__1::__cxx_atomic_base_impl" }
%"struct.std::__1::__cxx_atomic_base_impl" = type { i32 }
%"struct.mitsuba::Vector" = type { %"struct.drjit::StaticArrayImpl" }
%"struct.drjit::StaticArrayImpl" = type { [2 x i32] }
%"class.mitsuba::ref" = type { ptr }
%"class.mitsuba::Properties" = type { %"class.std::__1::unique_ptr.2" }
%"class.std::__1::unique_ptr.2" = type { %"class.std::__1::__compressed_pair.3" }
%"class.std::__1::__compressed_pair.3" = type { %"struct.std::__1::__compressed_pair_elem.4" }
%"struct.std::__1::__compressed_pair_elem.4" = type { ptr }
%"class.std::__1::basic_string" = type { %"class.std::__1::__compressed_pair.25" }
%"class.std::__1::__compressed_pair.25" = type { %"struct.std::__1::__compressed_pair_elem.26" }
%"struct.std::__1::__compressed_pair_elem.26" = type { %"struct.std::__1::basic_string<char>::__rep" }
%"struct.std::__1::basic_string<char>::__rep" = type { %union.anon }
%union.anon = type { %"struct.std::__1::basic_string<char>::__long" }
%"struct.std::__1::basic_string<char>::__long" = type { %struct.anon.27, i64, ptr }
%struct.anon.27 = type { i64 }
%"struct.mitsuba::ScopedPhase" = type { i8 }

@_ZN7mitsuba6Bitmap7m_classE = global ptr null, align 8
@.str.10 = private unnamed_addr constant [115 x i8] c"generated/home/dtcxzyw/WorkSpace/Projects/compilers/llvm-opt-benchmark/bench/mitsuba3/mitsuba3/src/core/bitmap.cpp\00", align 1
@.str.100 = private unnamed_addr constant [55 x i8] c"write_ppm(): Only 8 or 16-bit RGB images are supported\00", align 1
@.str.101 = private unnamed_addr constant [12 x i8] c"P6\0A%i\0A%i\0A%i\00", align 1

; Function Attrs: mustprogress nounwind uwtable
define linkonce_odr hidden noundef nonnull align 8 dereferenceable(8) ptr @_ZNKSt3__122__compressed_pair_elemIPhLi0ELb0EE5__getB8ne190000Ev(ptr noundef nonnull align 8 dereferenceable(8) %0) #1 comdat align 2 {
  %2 = alloca ptr, align 8
  store ptr %0, ptr %2, align 8
  %3 = load ptr, ptr %2, align 8
  %4 = getelementptr inbounds %"struct.std::__1::__compressed_pair_elem", ptr %3, i32 0, i32 0
  ret ptr %4
}

; Function Attrs: mustprogress nounwind uwtable
define linkonce_odr hidden noundef nonnull align 8 dereferenceable(8) ptr @_ZNKSt3__117__compressed_pairIPhNS_14default_deleteIA_hEEE5firstB8ne190000Ev(ptr noundef nonnull align 8 dereferenceable(8) %0) #1 comdat align 2 {
  %2 = alloca ptr, align 8
  store ptr %0, ptr %2, align 8
  %3 = load ptr, ptr %2, align 8
  %4 = call noundef nonnull align 8 dereferenceable(8) ptr @_ZNKSt3__122__compressed_pair_elemIPhLi0ELb0EE5__getB8ne190000Ev(ptr noundef nonnull align 8 dereferenceable(8) %3) #29
  ret ptr %4
}

; Function Attrs: mustprogress nounwind uwtable
define linkonce_odr hidden noundef ptr @_ZNKSt3__110unique_ptrIA_hNS_14default_deleteIS1_EEE3getB8ne190000Ev(ptr noundef nonnull align 8 dereferenceable(8) %0) #1 comdat align 2 {
  %2 = alloca ptr, align 8
  store ptr %0, ptr %2, align 8
  %3 = load ptr, ptr %2, align 8
  %4 = getelementptr inbounds %"class.std::__1::unique_ptr", ptr %3, i32 0, i32 0
  %5 = call noundef nonnull align 8 dereferenceable(8) ptr @_ZNKSt3__117__compressed_pairIPhNS_14default_deleteIA_hEEE5firstB8ne190000Ev(ptr noundef nonnull align 8 dereferenceable(8) %4) #29
  %6 = load ptr, ptr %5, align 8
  ret ptr %6
}

; Function Attrs: mustprogress nounwind uwtable
define linkonce_odr hidden void @_ZN7mitsuba11ScopedPhaseD2Ev(ptr noundef nonnull align 1 dereferenceable(1) %0) unnamed_addr #1 comdat align 2 {
  %2 = alloca ptr, align 8
  store ptr %0, ptr %2, align 8
  ret void
}

; Function Attrs: mustprogress nounwind uwtable
define linkonce_odr noundef ptr @_ZNK7mitsuba6Bitmap10uint8_dataEv(ptr noundef nonnull align 8 dereferenceable(64) %0) #1 comdat align 2 {
  %2 = alloca ptr, align 8
  store ptr %0, ptr %2, align 8
  %3 = load ptr, ptr %2, align 8
  %4 = getelementptr inbounds %"class.mitsuba::Bitmap", ptr %3, i32 0, i32 1
  %5 = call noundef ptr @_ZNKSt3__110unique_ptrIA_hNS_14default_deleteIS1_EEE3getB8ne190000Ev(ptr noundef nonnull align 8 dereferenceable(8) %4) #29
  ret ptr %5
}

; Function Attrs: mustprogress nounwind uwtable
define linkonce_odr hidden void @_ZN7mitsuba11ScopedPhaseC2ENS_13ProfilerPhaseE(ptr noundef nonnull align 1 dereferenceable(1) %0, i32 noundef %1) unnamed_addr #1 comdat align 2 {
  %3 = alloca ptr, align 8
  %4 = alloca i32, align 4
  store ptr %0, ptr %3, align 8
  store i32 %1, ptr %4, align 4
  ret void
}

; Function Attrs: mustprogress uwtable
define void @_ZNK7mitsuba6Bitmap9write_ppmEPNS_6StreamE(ptr noundef nonnull align 8 dereferenceable(64) %0, ptr noundef %1) #0 align 2 personality ptr @__gxx_personality_v0 {
  %3 = alloca ptr, align 8
  %4 = alloca i64, align 8
  %5 = alloca ptr, align 8
  %6 = alloca i64, align 8
  %7 = alloca ptr, align 8
  %8 = alloca ptr, align 8
  %9 = alloca ptr, align 8
  %10 = alloca ptr, align 8
  %11 = alloca ptr, align 8
  %12 = alloca ptr, align 8
  %13 = alloca %"struct.mitsuba::ScopedPhase", align 1
  %14 = alloca %"class.std::__1::basic_string", align 8
  %15 = alloca ptr, align 8
  %16 = alloca i32, align 4
  %17 = alloca %"class.std::__1::basic_string", align 8
  %18 = alloca i32, align 4
  store ptr %0, ptr %11, align 8
  store ptr %1, ptr %12, align 8
  %19 = load ptr, ptr %11, align 8
  call void @_ZN7mitsuba11ScopedPhaseC2ENS_13ProfilerPhaseE(ptr noundef nonnull align 1 dereferenceable(1) %13, i32 noundef 3)
  %20 = getelementptr inbounds %"class.mitsuba::Bitmap", ptr %19, i32 0, i32 2
  %21 = load i32, ptr %20, align 8
  %22 = icmp ne i32 %21, 2
  br i1 %22, label %31, label %23

23:                                               ; preds = %2
  %24 = getelementptr inbounds %"class.mitsuba::Bitmap", ptr %19, i32 0, i32 3
  %25 = load i32, ptr %24, align 4
  %26 = icmp ne i32 %25, 1
  br i1 %26, label %27, label %46

27:                                               ; preds = %23
  %28 = getelementptr inbounds %"class.mitsuba::Bitmap", ptr %19, i32 0, i32 3
  %29 = load i32, ptr %28, align 4
  %30 = icmp ne i32 %29, 3
  br i1 %30, label %31, label %46

31:                                               ; preds = %27, %2
  br label %32

32:                                               ; preds = %31
  %33 = load ptr, ptr @_ZN7mitsuba6Bitmap7m_classE, align 8
  invoke void @_ZN10tinyformat6formatIJEEENSt3__112basic_stringIcNS1_11char_traitsIcEENS1_9allocatorIcEEEEPKcDpRKT_(ptr dead_on_unwind writable sret(%"class.std::__1::basic_string") align 8 %14, ptr noundef @.str.100)
          to label %34 unwind label %36

34:                                               ; preds = %32
  invoke void @_ZN7mitsuba6detail5ThrowENS_8LogLevelEPKNS_5ClassEPKciRKNSt3__112basic_stringIcNS7_11char_traitsIcEENS7_9allocatorIcEEEE(i32 noundef 400, ptr noundef %33, ptr noundef @.str.10, i32 noundef 1931, ptr noundef nonnull align 8 dereferenceable(24) %14) #32
          to label %35 unwind label %40

35:                                               ; preds = %34
  unreachable

36:                                               ; preds = %72, %70, %67, %61, %32
  %37 = landingpad { ptr, i32 }
          cleanup
  %38 = extractvalue { ptr, i32 } %37, 0
  store ptr %38, ptr %15, align 8
  %39 = extractvalue { ptr, i32 } %37, 1
  store i32 %39, ptr %16, align 4
  br label %81

40:                                               ; preds = %34
  %41 = landingpad { ptr, i32 }
          cleanup
  %42 = extractvalue { ptr, i32 } %41, 0
  store ptr %42, ptr %15, align 8
  %43 = extractvalue { ptr, i32 } %41, 1
  store i32 %43, ptr %16, align 4
  call void @_ZNSt3__112basic_stringIcNS_11char_traitsIcEENS_9allocatorIcEEED1Ev(ptr noundef nonnull align 8 dereferenceable(24) %14) #29
  br label %81

44:                                               ; No predecessors!
  br label %45

45:                                               ; preds = %44
  br label %46

46:                                               ; preds = %45, %27, %23
  %47 = load ptr, ptr %12, align 8
  %48 = getelementptr inbounds %"class.mitsuba::Bitmap", ptr %19, i32 0, i32 4
  store ptr %48, ptr %10, align 8
  %49 = load ptr, ptr %10, align 8
  store ptr %49, ptr %7, align 8
  %50 = load ptr, ptr %7, align 8
  store ptr %50, ptr %3, align 8
  store i64 0, ptr %4, align 8
  %51 = load ptr, ptr %3, align 8
  %52 = load i64, ptr %4, align 8
  %53 = getelementptr inbounds [2 x i32], ptr %51, i64 0, i64 %52
  br label %54

54:                                               ; preds = %46
  %55 = getelementptr inbounds %"class.mitsuba::Bitmap", ptr %19, i32 0, i32 4
  store ptr %55, ptr %9, align 8
  %56 = load ptr, ptr %9, align 8
  store ptr %56, ptr %8, align 8
  %57 = load ptr, ptr %8, align 8
  store ptr %57, ptr %5, align 8
  store i64 1, ptr %6, align 8
  %58 = load ptr, ptr %5, align 8
  %59 = load i64, ptr %6, align 8
  %60 = getelementptr inbounds [2 x i32], ptr %58, i64 0, i64 %59
  br label %61

61:                                               ; preds = %54
  %62 = getelementptr inbounds %"class.mitsuba::Bitmap", ptr %19, i32 0, i32 3
  %63 = load i32, ptr %62, align 4
  %64 = icmp eq i32 %63, 1
  %65 = select i1 %64, i32 255, i32 65535
  store i32 %65, ptr %18, align 4
  invoke void @_ZN10tinyformat6formatIJjjiEEENSt3__112basic_stringIcNS1_11char_traitsIcEENS1_9allocatorIcEEEEPKcDpRKT_(ptr dead_on_unwind writable sret(%"class.std::__1::basic_string") align 8 %17, ptr noundef @.str.101, ptr noundef nonnull align 4 dereferenceable(4) %53, ptr noundef nonnull align 4 dereferenceable(4) %60, ptr noundef nonnull align 4 dereferenceable(4) %18)
          to label %66 unwind label %36

66:                                               ; preds = %61
  invoke void @_ZN7mitsuba6Stream10write_lineERKNSt3__112basic_stringIcNS1_11char_traitsIcEENS1_9allocatorIcEEEE(ptr noundef nonnull align 8 dereferenceable(16) %47, ptr noundef nonnull align 8 dereferenceable(24) %17)
          to label %67 unwind label %77

67:                                               ; preds = %66
  call void @_ZNSt3__112basic_stringIcNS_11char_traitsIcEENS_9allocatorIcEEED1Ev(ptr noundef nonnull align 8 dereferenceable(24) %17) #29
  %68 = load ptr, ptr %12, align 8
  %69 = invoke noundef ptr @_ZNK7mitsuba6Bitmap10uint8_dataEv(ptr noundef nonnull align 8 dereferenceable(64) %19)
          to label %70 unwind label %36

70:                                               ; preds = %67
  %71 = invoke noundef i64 @_ZNK7mitsuba6Bitmap11buffer_sizeEv(ptr noundef nonnull align 8 dereferenceable(64) %19)
          to label %72 unwind label %36

72:                                               ; preds = %70
  %73 = load ptr, ptr %68, align 8
  %74 = getelementptr inbounds ptr, ptr %73, i64 12
  %75 = load ptr, ptr %74, align 8
  invoke void %75(ptr noundef nonnull align 8 dereferenceable(16) %68, ptr noundef %69, i64 noundef %71)
          to label %76 unwind label %36

76:                                               ; preds = %72
  call void @_ZN7mitsuba11ScopedPhaseD2Ev(ptr noundef nonnull align 1 dereferenceable(1) %13) #29
  ret void

77:                                               ; preds = %66
  %78 = landingpad { ptr, i32 }
          cleanup
  %79 = extractvalue { ptr, i32 } %78, 0
  store ptr %79, ptr %15, align 8
  %80 = extractvalue { ptr, i32 } %78, 1
  store i32 %80, ptr %16, align 4
  call void @_ZNSt3__112basic_stringIcNS_11char_traitsIcEENS_9allocatorIcEEED1Ev(ptr noundef nonnull align 8 dereferenceable(24) %17) #29
  br label %81

81:                                               ; preds = %77, %40, %36
  call void @_ZN7mitsuba11ScopedPhaseD2Ev(ptr noundef nonnull align 1 dereferenceable(1) %13) #29
  br label %82

82:                                               ; preds = %81
  %83 = load ptr, ptr %15, align 8
  %84 = load i32, ptr %16, align 4
  %85 = insertvalue { ptr, i32 } poison, ptr %83, 0
  %86 = insertvalue { ptr, i32 } %85, i32 %84, 1
  resume { ptr, i32 } %86
}