; Function Attrs: mustprogress uwtable
define void @_ZNK7mitsuba6Bitmap9write_ppmEPNS_6StreamE(ptr noundef nonnull align 8 dereferenceable(64) %0, ptr noundef %1) local_unnamed_addr #0 align 2 personality ptr @__gxx_personality_v0 {
  %3 = alloca %"class.std::__1::basic_string", align 8
  %4 = alloca %"class.std::__1::basic_string", align 8
  %5 = alloca i32, align 4
  %6 = getelementptr inbounds i8, ptr %0, i64 24
  %7 = load i32, ptr %6, align 8
  %.not = icmp eq i32 %7, 2
  br i1 %.not, label %8, label %11

8:                                                ; preds = %2
  %9 = getelementptr inbounds i8, ptr %0, i64 28
  %10 = load i32, ptr %9, align 4
  switch i32 %10, label %11 [
    i32 1, label %16
    i32 3, label %16
  ]

11:                                               ; preds = %8, %2
  %12 = load ptr, ptr @_ZN7mitsuba6Bitmap7m_classE, align 8
  call void @_ZN10tinyformat6formatIJEEENSt3__112basic_stringIcNS1_11char_traitsIcEENS1_9allocatorIcEEEEPKcDpRKT_(ptr dead_on_unwind nonnull writable sret(%"class.std::__1::basic_string") align 8 %3, ptr noundef nonnull @.str.100)
  invoke void @_ZN7mitsuba6detail5ThrowENS_8LogLevelEPKNS_5ClassEPKciRKNSt3__112basic_stringIcNS7_11char_traitsIcEENS7_9allocatorIcEEEE(i32 noundef 400, ptr noundef %12, ptr noundef nonnull @.str.10, i32 noundef 1931, ptr noundef nonnull align 8 dereferenceable(24) %3) #37
          to label %13 unwind label %14

13:                                               ; preds = %11
  unreachable

14:                                               ; preds = %11
  %15 = landingpad { ptr, i32 }
          cleanup
  br label %30

16:                                               ; preds = %8, %8
  %17 = getelementptr inbounds i8, ptr %0, i64 32
  %18 = getelementptr inbounds i8, ptr %0, i64 36
  %19 = icmp eq i32 %10, 1
  %20 = select i1 %19, i32 255, i32 65535
  store i32 %20, ptr %5, align 4
  call void @_ZN10tinyformat6formatIJjjiEEENSt3__112basic_stringIcNS1_11char_traitsIcEENS1_9allocatorIcEEEEPKcDpRKT_(ptr dead_on_unwind nonnull writable sret(%"class.std::__1::basic_string") align 8 %4, ptr noundef nonnull @.str.101, ptr noundef nonnull align 4 dereferenceable(4) %17, ptr noundef nonnull align 4 dereferenceable(4) %18, ptr noundef nonnull align 4 dereferenceable(4) %5)
  invoke void @_ZN7mitsuba6Stream10write_lineERKNSt3__112basic_stringIcNS1_11char_traitsIcEENS1_9allocatorIcEEEE(ptr noundef nonnull align 8 dereferenceable(16) %1, ptr noundef nonnull align 8 dereferenceable(24) %4)
          to label %21 unwind label %28

21:                                               ; preds = %16
  call void @_ZNSt3__112basic_stringIcNS_11char_traitsIcEENS_9allocatorIcEEED1Ev(ptr noundef nonnull align 8 dereferenceable(24) %4) #36
  %22 = getelementptr inbounds i8, ptr %0, i64 16
  %23 = load ptr, ptr %22, align 8
  %24 = call noundef i64 @_ZNK7mitsuba6Bitmap11buffer_sizeEv(ptr noundef nonnull align 8 dereferenceable(64) %0)
  %25 = load ptr, ptr %1, align 8
  %26 = getelementptr inbounds i8, ptr %25, i64 96
  %27 = load ptr, ptr %26, align 8
  call void %27(ptr noundef nonnull align 8 dereferenceable(16) %1, ptr noundef %23, i64 noundef %24)
  ret void

28:                                               ; preds = %16
  %29 = landingpad { ptr, i32 }
          cleanup
  br label %30

30:                                               ; preds = %28, %14
  %.sink = phi ptr [ %4, %28 ], [ %3, %14 ]
  %.pn = phi { ptr, i32 } [ %29, %28 ], [ %15, %14 ]
  call void @_ZNSt3__112basic_stringIcNS_11char_traitsIcEENS_9allocatorIcEEED1Ev(ptr noundef nonnull align 8 dereferenceable(24) %.sink) #36
  resume { ptr, i32 } %.pn
}